target datalayout = "e-m:e-p270:32:32-p271:32:32-p272:64:64-i64:64-i128:128-f80:128-n8:16:32:64-S128"
target triple = "x86_64-pc-linux-gnu"

%"class.zmq::msg_t" = type { %union.anon }
%union.anon = type { %struct.anon }
%struct.anon = type { ptr, [34 x i8], i8, i8, i32, %"union.zmq::msg_t::group_t" }
%"union.zmq::msg_t::group_t" = type { %struct.anon.1 }
%struct.anon.1 = type { i8, ptr }
%"class.zmq::pipe_t" = type { %"class.zmq::object_t.base", [4 x i8], %"class.zmq::array_item_t.base", [4 x i8], %"class.zmq::array_item_t.base.11", [4 x i8], %"class.zmq::array_item_t.base.13", ptr, ptr, i8, i8, i32, i32, i32, i32, i64, i64, i64, ptr, ptr, i32, i8, [3 x i8], %"struct.zmq::blob_t", i32, i8, [3 x i8], %"struct.zmq::endpoint_uri_pair_t", %"class.zmq::msg_t" }
%"class.zmq::object_t.base" = type <{ ptr, ptr, i32 }>
%"class.zmq::array_item_t.base" = type <{ ptr, i32 }>
%"class.zmq::array_item_t.base.11" = type <{ ptr, i32 }>
%"class.zmq::array_item_t.base.13" = type <{ ptr, i32 }>
%"struct.zmq::blob_t" = type <{ ptr, i64, i8, [7 x i8] }>
%"struct.zmq::endpoint_uri_pair_t" = type <{ %"class.std::__cxx11::basic_string", %"class.std::__cxx11::basic_string", i32, [4 x i8] }>
%"class.std::__cxx11::basic_string" = type { %"struct.std::__cxx11::basic_string<char>::_Alloc_hider", i64, %union.anon.14 }
%"struct.std::__cxx11::basic_string<char>::_Alloc_hider" = type { ptr }
%union.anon.14 = type { i64, [8 x i8] }

@stderr = external global ptr, align 8
@.str.1 = private unnamed_addr constant [104 x i8] c"generated/home/dtcxzyw/WorkSpace/Projects/compilers/llvm-opt-benchmark/bench/libzmq/libzmq/src/pipe.cpp\00", align 1
@.str.4 = private unnamed_addr constant [30 x i8] c"Assertion failed: %s (%s:%d)\0A\00", align 1
@.str.8 = private unnamed_addr constant [3 x i8] c"ok\00", align 1
@.str.17 = private unnamed_addr constant [52 x i8] c"_state == active || _state == waiting_for_delimiter\00", align 1

; Function Attrs: mustprogress uwtable
define void @_ZN3zmq6pipe_t17process_delimiterEv(ptr noundef nonnull align 8 dereferenceable(328) %0) #0 align 2 {
  %2 = alloca ptr, align 8
  store ptr %0, ptr %2, align 8, !tbaa !27
  %3 = load ptr, ptr %2, align 8
  br label %4

4:                                                ; preds = %1
  %5 = getelementptr inbounds nuw %"class.zmq::pipe_t", ptr %3, i32 0, i32 20
  %6 = load i32, ptr %5, align 8, !tbaa !110
  %7 = icmp eq i32 %6, 0
  br i1 %7, label %12, label %8

8:                                                ; preds = %4
  %9 = getelementptr inbounds nuw %"class.zmq::pipe_t", ptr %3, i32 0, i32 20
  %10 = load i32, ptr %9, align 8, !tbaa !110
  %11 = icmp eq i32 %10, 2
  br label %12

12:                                               ; preds = %8, %4
  %13 = phi i1 [ true, %4 ], [ %11, %8 ]
  %14 = xor i1 %13, true
  %15 = zext i1 %14 to i64
  %16 = call i64 @llvm.expect.i64(i64 %15, i64 0)
  %17 = icmp ne i64 %16, 0
  br i1 %17, label %18, label %23

18:                                               ; preds = %12
  %19 = load ptr, ptr @stderr, align 8, !tbaa !21
  %20 = call i32 (ptr, ptr, ...) @fprintf(ptr noundef %19, ptr noundef @.str.4, ptr noundef @.str.17, ptr noundef @.str.1, i32 noundef 477) #17
  %21 = load ptr, ptr @stderr, align 8, !tbaa !21
  %22 = call i32 @fflush(ptr noundef %21)
  call void @_ZN3zmq9zmq_abortEPKc(ptr noundef @.str.17)
  br label %23

23:                                               ; preds = %18, %12
  br label %24

24:                                               ; preds = %23
  %25 = getelementptr inbounds nuw %"class.zmq::pipe_t", ptr %3, i32 0, i32 20
  %26 = load i32, ptr %25, align 8, !tbaa !110
  %27 = icmp eq i32 %26, 0
  br i1 %27, label %28, label %30

28:                                               ; preds = %24
  %29 = getelementptr inbounds nuw %"class.zmq::pipe_t", ptr %3, i32 0, i32 20
  store i32 1, ptr %29, align 8, !tbaa !110
  br label %35

30:                                               ; preds = %24
  call void @_ZNK3zmq6pipe_t8rollbackEv(ptr noundef nonnull align 8 dereferenceable(328) %3)
  %31 = getelementptr inbounds nuw %"class.zmq::pipe_t", ptr %3, i32 0, i32 8
  store ptr null, ptr %31, align 8, !tbaa !108
  %32 = getelementptr inbounds nuw %"class.zmq::pipe_t", ptr %3, i32 0, i32 18
  %33 = load ptr, ptr %32, align 8, !tbaa !53
  call void @_ZN3zmq8object_t18send_pipe_term_ackEPNS_6pipe_tE(ptr noundef nonnull align 8 dereferenceable(20) %3, ptr noundef %33)
  %34 = getelementptr inbounds nuw %"class.zmq::pipe_t", ptr %3, i32 0, i32 20
  store i32 3, ptr %34, align 8, !tbaa !110
  br label %35

35:                                               ; preds = %30, %28
  ret void
}

; Function Attrs: mustprogress uwtable
define noundef zeroext i1 @_ZN3zmq6pipe_t10check_readEv(ptr noundef nonnull align 8 dereferenceable(328) %0) #0 align 2 {
  %2 = alloca i1, align 1
  %3 = alloca ptr, align 8
  %4 = alloca %"class.zmq::msg_t", align 8
  %5 = alloca i8, align 1
  store ptr %0, ptr %3, align 8, !tbaa !27
  %6 = load ptr, ptr %3, align 8
  %7 = getelementptr inbounds nuw %"class.zmq::pipe_t", ptr %6, i32 0, i32 9
  %8 = load i8, ptr %7, align 8, !tbaa !117, !range !17, !noundef !18
  %9 = trunc i8 %8 to i1
  %10 = xor i1 %9, true
  %11 = zext i1 %10 to i64
  %12 = call i64 @llvm.expect.i64(i64 %11, i64 0)
  %13 = icmp ne i64 %12, 0
  br i1 %13, label %14, label %15

14:                                               ; preds = %1
  store i1 false, ptr %2, align 1
  br label %69

15:                                               ; preds = %1
  %16 = getelementptr inbounds nuw %"class.zmq::pipe_t", ptr %6, i32 0, i32 20
  %17 = load i32, ptr %16, align 8, !tbaa !110
  %18 = icmp ne i32 %17, 0
  br i1 %18, label %19, label %23

19:                                               ; preds = %15
  %20 = getelementptr inbounds nuw %"class.zmq::pipe_t", ptr %6, i32 0, i32 20
  %21 = load i32, ptr %20, align 8, !tbaa !110
  %22 = icmp ne i32 %21, 2
  br label %23

23:                                               ; preds = %19, %15
  %24 = phi i1 [ false, %15 ], [ %22, %19 ]
  %25 = zext i1 %24 to i64
  %26 = call i64 @llvm.expect.i64(i64 %25, i64 0)
  %27 = icmp ne i64 %26, 0
  br i1 %27, label %28, label %29

28:                                               ; preds = %23
  store i1 false, ptr %2, align 1
  br label %69

29:                                               ; preds = %23
  %30 = getelementptr inbounds nuw %"class.zmq::pipe_t", ptr %6, i32 0, i32 7
  %31 = load ptr, ptr %30, align 8, !tbaa !116
  %32 = load ptr, ptr %31, align 8, !tbaa !31
  %33 = getelementptr inbounds ptr, ptr %32, i64 5
  %34 = load ptr, ptr %33, align 8
  %35 = call noundef zeroext i1 %34(ptr noundef nonnull align 8 dereferenceable(8) %31)
  br i1 %35, label %38, label %36

36:                                               ; preds = %29
  %37 = getelementptr inbounds nuw %"class.zmq::pipe_t", ptr %6, i32 0, i32 9
  store i8 0, ptr %37, align 8, !tbaa !117
  store i1 false, ptr %2, align 1
  br label %69

38:                                               ; preds = %29
  %39 = getelementptr inbounds nuw %"class.zmq::pipe_t", ptr %6, i32 0, i32 7
  %40 = load ptr, ptr %39, align 8, !tbaa !116
  %41 = load ptr, ptr %40, align 8, !tbaa !31
  %42 = getelementptr inbounds ptr, ptr %41, i64 7
  %43 = load ptr, ptr %42, align 8
  %44 = call noundef zeroext i1 %43(ptr noundef nonnull align 8 dereferenceable(8) %40, ptr noundef @_ZN3zmq6pipe_t12is_delimiterERKNS_5msg_tE)
  br i1 %44, label %45, label %68

45:                                               ; preds = %38
  call void @llvm.lifetime.start.p0(i64 64, ptr %4) #17
  call void @llvm.lifetime.start.p0(i64 1, ptr %5) #17
  %46 = getelementptr inbounds nuw %"class.zmq::pipe_t", ptr %6, i32 0, i32 7
  %47 = load ptr, ptr %46, align 8, !tbaa !116
  %48 = load ptr, ptr %47, align 8, !tbaa !31
  %49 = getelementptr inbounds ptr, ptr %48, i64 6
  %50 = load ptr, ptr %49, align 8
  %51 = call noundef zeroext i1 %50(ptr noundef nonnull align 8 dereferenceable(8) %47, ptr noundef %4)
  %52 = zext i1 %51 to i8
  store i8 %52, ptr %5, align 1, !tbaa !15
  br label %53

53:                                               ; preds = %45
  %54 = load i8, ptr %5, align 1, !tbaa !15, !range !17, !noundef !18
  %55 = trunc i8 %54 to i1
  %56 = xor i1 %55, true
  %57 = zext i1 %56 to i64
  %58 = call i64 @llvm.expect.i64(i64 %57, i64 0)
  %59 = icmp ne i64 %58, 0
  br i1 %59, label %60, label %65

60:                                               ; preds = %53
  %61 = load ptr, ptr @stderr, align 8, !tbaa !21
  %62 = call i32 (ptr, ptr, ...) @fprintf(ptr noundef %61, ptr noundef @.str.4, ptr noundef @.str.8, ptr noundef @.str.1, i32 noundef 162) #17
  %63 = load ptr, ptr @stderr, align 8, !tbaa !21
  %64 = call i32 @fflush(ptr noundef %63)
  call void @_ZN3zmq9zmq_abortEPKc(ptr noundef @.str.8)
  br label %65

65:                                               ; preds = %60, %53
  br label %66

66:                                               ; preds = %65
  br label %67

67:                                               ; preds = %66
  call void @_ZN3zmq6pipe_t17process_delimiterEv(ptr noundef nonnull align 8 dereferenceable(328) %6)
  store i1 false, ptr %2, align 1
  call void @llvm.lifetime.end.p0(i64 1, ptr %5) #17
  call void @llvm.lifetime.end.p0(i64 64, ptr %4) #17
  br label %69

68:                                               ; preds = %38
  store i1 true, ptr %2, align 1
  br label %69

69:                                               ; preds = %68, %67, %36, %28, %14
  %70 = load i1, ptr %2, align 1
  ret i1 %70
}