; Function Attrs: mustprogress uwtable
define noundef zeroext i1 @_ZN3zmq6pipe_t10check_readEv(ptr noundef nonnull align 8 dereferenceable(328) %0) local_unnamed_addr #0 align 2 {
  %2 = alloca %"class.zmq::msg_t", align 8
  %3 = getelementptr inbounds nuw i8, ptr %0, i64 88
  %4 = load i8, ptr %3, align 8, !tbaa !112, !range !7, !noundef !8
  %5 = trunc nuw i8 %4 to i1
  br i1 %5, label %6, label %50, !prof !47

6:                                                ; preds = %1
  %7 = getelementptr inbounds nuw i8, ptr %0, i64 152
  %8 = load i32, ptr %7, align 8, !tbaa !105
  %9 = and i32 %8, -3
  %spec.select.not = icmp eq i32 %9, 0
  br i1 %spec.select.not, label %10, label %50, !prof !47

10:                                               ; preds = %6
  %11 = getelementptr inbounds nuw i8, ptr %0, i64 72
  %12 = load ptr, ptr %11, align 8, !tbaa !111
  %13 = load ptr, ptr %12, align 8, !tbaa !9
  %14 = getelementptr inbounds nuw i8, ptr %13, i64 40
  %15 = load ptr, ptr %14, align 8
  %16 = tail call noundef zeroext i1 %15(ptr noundef nonnull align 8 dereferenceable(8) %12)
  br i1 %16, label %18, label %17

17:                                               ; preds = %10
  store i8 0, ptr %3, align 8, !tbaa !112
  br label %50

18:                                               ; preds = %10
  %19 = load ptr, ptr %11, align 8, !tbaa !111
  %20 = load ptr, ptr %19, align 8, !tbaa !9
  %21 = getelementptr inbounds nuw i8, ptr %20, i64 56
  %22 = load ptr, ptr %21, align 8
  %23 = tail call noundef zeroext i1 %22(ptr noundef nonnull align 8 dereferenceable(8) %19, ptr noundef nonnull @_ZN3zmq6pipe_t12is_delimiterERKNS_5msg_tE)
  br i1 %23, label %24, label %50

24:                                               ; preds = %18
  call void @llvm.lifetime.start.p0(i64 64, ptr nonnull %2) #25
  %25 = load ptr, ptr %11, align 8, !tbaa !111
  %26 = load ptr, ptr %25, align 8, !tbaa !9
  %27 = getelementptr inbounds nuw i8, ptr %26, i64 48
  %28 = load ptr, ptr %27, align 8
  %29 = call noundef zeroext i1 %28(ptr noundef nonnull align 8 dereferenceable(8) %25, ptr noundef nonnull %2)
  br i1 %29, label %35, label %30, !prof !47

30:                                               ; preds = %24
  %31 = load ptr, ptr @stderr, align 8, !tbaa !21
  %32 = call i32 (ptr, ptr, ...) @fprintf(ptr noundef %31, ptr noundef nonnull @.str.4, ptr noundef nonnull @.str.8, ptr noundef nonnull @.str.1, i32 noundef 162) #26
  %33 = load ptr, ptr @stderr, align 8, !tbaa !21
  %34 = call i32 @fflush(ptr noundef %33)
  call void @_ZN3zmq9zmq_abortEPKc(ptr noundef nonnull @.str.8)
  br label %35

35:                                               ; preds = %30, %24
  %36 = load i32, ptr %7, align 8, !tbaa !105
  %37 = and i32 %36, -3
  %spec.select.not.i = icmp eq i32 %37, 0
  br i1 %spec.select.not.i, label %43, label %38, !prof !47

38:                                               ; preds = %35
  %39 = load ptr, ptr @stderr, align 8, !tbaa !21
  %40 = call i32 (ptr, ptr, ...) @fprintf(ptr noundef %39, ptr noundef nonnull @.str.4, ptr noundef nonnull @.str.17, ptr noundef nonnull @.str.1, i32 noundef 477) #26
  %41 = load ptr, ptr @stderr, align 8, !tbaa !21
  %42 = call i32 @fflush(ptr noundef %41)
  call void @_ZN3zmq9zmq_abortEPKc(ptr noundef nonnull @.str.17)
  %.pr.i = load i32, ptr %7, align 8, !tbaa !105
  br label %43

43:                                               ; preds = %38, %35
  %44 = phi i32 [ %36, %35 ], [ %.pr.i, %38 ]
  %45 = icmp eq i32 %44, 0
  br i1 %45, label %_ZN3zmq6pipe_t17process_delimiterEv.exit, label %46

46:                                               ; preds = %43
  call void @_ZNK3zmq6pipe_t8rollbackEv(ptr noundef nonnull align 8 dereferenceable(328) %0)
  %47 = getelementptr inbounds nuw i8, ptr %0, i64 80
  store ptr null, ptr %47, align 8, !tbaa !103
  %48 = getelementptr inbounds nuw i8, ptr %0, i64 136
  %49 = load ptr, ptr %48, align 8, !tbaa !29
  call void @_ZN3zmq8object_t18send_pipe_term_ackEPNS_6pipe_tE(ptr noundef nonnull align 8 dereferenceable(328) %0, ptr noundef %49)
  br label %_ZN3zmq6pipe_t17process_delimiterEv.exit

_ZN3zmq6pipe_t17process_delimiterEv.exit:         ; preds = %43, %46
  %storemerge.i = phi i32 [ 3, %46 ], [ 1, %43 ]
  store i32 %storemerge.i, ptr %7, align 8, !tbaa !105
  call void @llvm.lifetime.end.p0(i64 64, ptr nonnull %2) #25
  br label %50

50:                                               ; preds = %18, %6, %1, %_ZN3zmq6pipe_t17process_delimiterEv.exit, %17
  %.0 = phi i1 [ false, %_ZN3zmq6pipe_t17process_delimiterEv.exit ], [ false, %17 ], [ false, %1 ], [ false, %6 ], [ true, %18 ]
  ret i1 %.0
}